; ModuleID = '28/1701.c'
source_filename = "28/1701.c"
target datalayout = "e-m:e-p270:32:32-p271:32:32-p272:64:64-i64:64-f80:128-n8:16:32:64-S128"
target triple = "x86_64-pc-linux-gnu"

@ss = dso_local global i32 0, align 4
@check.k = internal global i32 0, align 4
@check.m = internal global i32 0, align 4
@.str = private unnamed_addr constant [3 x i8] c"%d\00", align 1
@.str.1 = private unnamed_addr constant [4 x i8] c",%d\00", align 1

; Function Attrs: noinline nounwind uwtable
define dso_local void @check(i8* %0) #0 {
  %2 = alloca i8*, align 8
  store i8* %0, i8** %2, align 8
  %3 = load i8*, i8** %2, align 8
  %4 = load i8, i8* %3, align 1
  %5 = sext i8 %4 to i32
  %6 = icmp eq i32 %5, 32
  br i1 %6, label %12, label %7

7:                                                ; preds = %1
  %8 = load i8*, i8** %2, align 8
  %9 = load i8, i8* %8, align 1
  %10 = sext i8 %9 to i32
  %11 = icmp eq i32 %10, 0
  br i1 %11, label %12, label %32

12:                                               ; preds = %7, %1
  %13 = load i32, i32* @check.m, align 4
  %14 = icmp eq i32 %13, 1
  br i1 %14, label %15, label %25

15:                                               ; preds = %12
  store i32 0, i32* @check.m, align 4
  %16 = load i32, i32* @ss, align 4
  %17 = icmp eq i32 %16, 0
  br i1 %17, label %18, label %21

18:                                               ; preds = %15
  store i32 1, i32* @ss, align 4
  %19 = load i32, i32* @check.k, align 4
  %20 = call i32 (i8*, ...) @printf(i8* getelementptr inbounds ([3 x i8], [3 x i8]* @.str, i64 0, i64 0), i32 %19)
  br label %24

21:                                               ; preds = %15
  %22 = load i32, i32* @check.k, align 4
  %23 = call i32 (i8*, ...) @printf(i8* getelementptr inbounds ([4 x i8], [4 x i8]* @.str.1, i64 0, i64 0), i32 %22)
  br label %24

24:                                               ; preds = %21, %18
  store i32 0, i32* @check.m, align 4
  store i32 0, i32* @check.k, align 4
  br label %25

25:                                               ; preds = %24, %12
  %26 = load i8*, i8** %2, align 8
  %27 = load i8, i8* %26, align 1
  %28 = sext i8 %27 to i32
  %29 = icmp eq i32 %28, 0
  br i1 %29, label %30, label %31

30:                                               ; preds = %25
  br label %38

31:                                               ; preds = %25
  br label %35

32:                                               ; preds = %7
  store i32 1, i32* @check.m, align 4
  %33 = load i32, i32* @check.k, align 4
  %34 = add nsw i32 %33, 1
  store i32 %34, i32* @check.k, align 4
  br label %35

35:                                               ; preds = %32, %31
  %36 = load i8*, i8** %2, align 8
  %37 = getelementptr inbounds i8, i8* %36, i64 1
  call void @check(i8* %37)
  br label %38

38:                                               ; preds = %35, %30
  ret void
}

declare dso_local i32 @printf(i8*, ...) #1

; Function Attrs: noinline nounwind uwtable
define dso_local i32 @main() #0 {
  %1 = alloca i8*, align 8
  %2 = call noalias i8* @malloc(i64 10000) #3
  store i8* %2, i8** %1, align 8
  %3 = load i8*, i8** %1, align 8
  %4 = call i32 (i8*, ...) bitcast (i32 (...)* @gets to i32 (i8*, ...)*)(i8* %3)
  %5 = load i8*, i8** %1, align 8
  call void @check(i8* %5)
  ret i32 0
}

; Function Attrs: nounwind
declare dso_local noalias i8* @malloc(i64) #2

declare dso_local i32 @gets(...) #1


!llvm.module.flags = !{!0}
!llvm.ident = !{!1}

!0 = !{i32 1, !"wchar_size", i32 4}
!1 = !{!"clang version 10.0.0-4ubuntu1 "}
